(i__main__
SaveData
p1
(dp2
S'theme'
p3
VDecision making
p4
sS'dbdict'
p5
(dp6
S'Setup'
p7
(lp8
sVReading
p9
(lp10
sg4
(lp11
VThink of a good analogy
p12
aVHas anyone done this before?
p13
aVWhat are the relevant strengths?
p14
aVConfirmation bias?
p15
aVWhat would be the pre-mortem assessment on this issue?
p16
aVIs the question worth considering in the first place?
p17
aVIs the frame too narrow?
p18
aVConsider the opposite
p19
aVZoom out, zoom in
p20
aVOoch
p21
aVOvercome short-term emotion
p22
aVHonor core priorities
p23
aVSet a tripwire
p24
aVIs there a Pareto optimum?
p25
aVPerhaps this is a good situation to ask someone else?
p26
aVIf this is not that important, System 1 may suffice
p27
aVIs there a relevant subquestion to ask?
p28
aVCan the problem be split into smaller parts?
p29
aVCome back to the problem later.
p30
assb.