(i__main__
SaveData
p1
(dp2
S'theme'
p3
VDecision making
p4
sS'dbdict'
p5
(dp6
S'Setup'
p7
(lp8
sVReading
p9
(lp10
sVMotivation
p11
(lp12
Vglycemic status?
p13
aVbigger picture?
p14
asg4
(lp15
VThink of a good analogy
p16
aVHas anyone done this before?
p17
aVWhat are the relevant strengths?
p18
aVConfirmation bias?
p19
aVPre-mortem assessment?
p20
aVIs the question worth considering in the first place?
p21
aVIs the frame too narrow?
p22
aVConsider the opposite
p23
aVZoom out, zoom in
p24
aVOooch
p25
aVOvercome short-term emotion
p26
aVHonor core priorities
p27
aVSet a tripwire
p28
aVIs there a Pareto optimum?
p29
aVPerhaps this is a good situation to ask someone else?
p30
aVIf not important, System 1 may suffice
p31
aVCan the problem be split into smaller parts?
p32
aVCome back to the problem later.
p33
assb.