(i__main__
SaveData
p1
(dp2
S'theme'
p3
VDecision making
p4
sS'dbdict'
p5
(dp6
VMotivation
p7
(lp8
Vglycemic status?
p9
aVbigger picture?
p10
asVReading
p11
(lp12
sg4
(lp13
VThink of a good analogy
p14
aVHas anyone done this before?
p15
aVWhat are the relevant strengths?
p16
aVConfirmation bias?
p17
aVPre-mortem assessment?
p18
aVIs the question worth considering in the first place?
p19
aVIs the frame too narrow?
p20
aVConsider the opposite
p21
aVZoom out, zoom in
p22
aVOooch
p23
aVOvercome short-term emotion
p24
aVHonor core priorities
p25
aVSet a tripwire
p26
aVIs there a Pareto optimum?
p27
aVPerhaps this is a good situation to ask someone else?
p28
aVIf not important, System 1 may suffice
p29
aVCan the problem be split into smaller parts?
p30
aVCome back to the problem later.
p31
assb.