(lp1
VThink of a good analogy
p2
aVHas anyone done this before?
p3
aVWhat are the relevant strengths?
p4
aVAm I subjected to confirmation bias?
p5
aVWhat would be the pre-mortem assessment on this issue?
p6
aVIs the question worth considering in the first place?
p7
aVIs the frame too narrow?
p8
aVConsider the opposite
p9
aVZoom out, zoom in
p10
aVOoch
p11
aVOvercome short-term emotion
p12
aVHonor core priorities
p13
aVset a tripwire
p14
aS''
a.